target datalayout = "e-m:e-p270:32:32-p271:32:32-p272:64:64-i64:64-i128:128-f80:128-n8:16:32:64-S128"
target triple = "x86_64-pc-linux-gnu"

%struct.darktable_t = type { %struct.dt_codepath_t, i32, i32, ptr, ptr, ptr, ptr, ptr, ptr, ptr, ptr, ptr, ptr, ptr, ptr, ptr, ptr, ptr, ptr, ptr, ptr, ptr, ptr, ptr, ptr, ptr, ptr, ptr, ptr, ptr, [64 x %struct.dt_pthread_mutex_t], %struct.dt_pthread_mutex_t, %struct.dt_pthread_mutex_t, %struct.dt_pthread_mutex_t, %struct.dt_pthread_mutex_t, %struct.dt_pthread_mutex_t, ptr, ptr, ptr, ptr, ptr, ptr, ptr, ptr, ptr, ptr, ptr, ptr, ptr, %struct.dt_lua_state_t, ptr, double, ptr, i32, [47 x i32], i32, i32, ptr, ptr, %struct.dt_sys_resources_t, %struct.dt_backthumb_t, %struct.dt_gimp_t }
%struct.dt_codepath_t = type { i8, [3 x i8] }
%struct.dt_pthread_mutex_t = type { %union.pthread_mutex_t }
%union.pthread_mutex_t = type { %struct.__pthread_mutex_s }
%struct.__pthread_mutex_s = type { i32, i32, i32, i32, i32, i16, i16, %struct.__pthread_internal_list }
%struct.__pthread_internal_list = type { ptr, ptr }
%struct.dt_lua_state_t = type { i32 }
%struct.dt_sys_resources_t = type { i64, i64, ptr, ptr, i32 }
%struct.dt_backthumb_t = type { double, double, i32, i32, i32, i32 }
%struct.dt_gimp_t = type { i32, ptr, ptr, i32, i32 }

@darktable = external global %struct.darktable_t, align 8
@.str.2 = private unnamed_addr constant [41 x i8] c"[sql] %s:%d, function %s(): prepare \22%s\22\00", align 1
@.str.3 = private unnamed_addr constant [115 x i8] c"generated/home/dtcxzyw/WorkSpace/Projects/compilers/llvm-opt-benchmark/bench/darktable/darktable/src/common/film.c\00", align 1
@stderr = external global ptr, align 8
@.str.5 = private unnamed_addr constant [53 x i8] c"sqlite3 error: %s:%d, function %s(), query \22%s\22: %s\0A\00", align 1
@.str.6 = private unnamed_addr constant [41 x i8] c"sqlite3 error: %s:%d, function %s(): %s\0A\00", align 1
@.str.16 = private unnamed_addr constant [17 x i8] c"ask_before_rmdir\00", align 1
@__FUNCTION__.dt_film_remove_empty = private unnamed_addr constant [21 x i8] c"dt_film_remove_empty\00", align 1
@.str.17 = private unnamed_addr constant [129 x i8] c"SELECT id, folder FROM main.film_rolls AS B WHERE (SELECT COUNT(*)        FROM main.images AS A        WHERE A.film_id=B.id) = 0\00", align 1
@.str.18 = private unnamed_addr constant [40 x i8] c"DELETE FROM main.film_rolls WHERE id=?1\00", align 1
@.str.19 = private unnamed_addr constant [40 x i8] c"[signal] raise %s; %s:%d, function %s()\00", align 1
@.str.20 = private unnamed_addr constant [28 x i8] c"DT_SIGNAL_FILMROLLS_REMOVED\00", align 1

; Function Attrs: nounwind uwtable
define void @dt_film_remove_empty() #0 {
  %1 = alloca ptr, align 8
  %2 = alloca i32, align 4
  %3 = alloca i32, align 4
  %4 = alloca ptr, align 8
  %5 = alloca i32, align 4
  %6 = alloca ptr, align 8
  %7 = alloca i32, align 4
  %8 = alloca ptr, align 8
  %9 = alloca i32, align 4
  %10 = alloca i32, align 4
  call void @llvm.lifetime.start.p0(i64 8, ptr %1) #8
  store ptr null, ptr %1, align 8, !tbaa !80
  call void @llvm.lifetime.start.p0(i64 4, ptr %2) #8
  %11 = call i32 @dt_conf_get_bool(ptr noundef @.str.16)
  store i32 %11, ptr %2, align 4, !tbaa !24
  call void @llvm.lifetime.start.p0(i64 4, ptr %3) #8
  store i32 0, ptr %3, align 4, !tbaa !24
  call void @llvm.lifetime.start.p0(i64 8, ptr %4) #8
  br label %12

12:                                               ; preds = %0
  br label %13

13:                                               ; preds = %12
  %14 = load i32, ptr getelementptr inbounds nuw (%struct.darktable_t, ptr @darktable, i32 0, i32 2), align 8, !tbaa !25
  %15 = and i32 256, %14
  %16 = icmp ne i32 %15, 0
  br i1 %16, label %17, label %23

17:                                               ; preds = %13
  %18 = load i32, ptr getelementptr inbounds nuw (%struct.darktable_t, ptr @darktable, i32 0, i32 2), align 8, !tbaa !25
  %19 = xor i32 %18, -1
  %20 = and i32 0, %19
  %21 = icmp ne i32 %20, 0
  br i1 %21, label %23, label %22

22:                                               ; preds = %17
  call void (ptr, ...) @dt_print_ext(ptr noundef @.str.2, ptr noundef @.str.3, i32 noundef 405, ptr noundef @__FUNCTION__.dt_film_remove_empty, ptr noundef @.str.17)
  br label %23

23:                                               ; preds = %22, %17, %13
  br label %24

24:                                               ; preds = %23
  br label %25

25:                                               ; preds = %24
  call void @llvm.lifetime.start.p0(i64 4, ptr %5) #8
  %26 = load ptr, ptr getelementptr inbounds nuw (%struct.darktable_t, ptr @darktable, i32 0, i32 18), align 8, !tbaa !62
  %27 = call ptr @dt_database_get(ptr noundef %26)
  %28 = call i32 @sqlite3_prepare_v2(ptr noundef %27, ptr noundef @.str.17, i32 noundef -1, ptr noundef %4, ptr noundef null)
  store i32 %28, ptr %5, align 4, !tbaa !24
  %29 = load i32, ptr %5, align 4, !tbaa !24
  %30 = icmp ne i32 %29, 0
  br i1 %30, label %31, label %37

31:                                               ; preds = %25
  %32 = load ptr, ptr @stderr, align 8, !tbaa !63
  %33 = load ptr, ptr getelementptr inbounds nuw (%struct.darktable_t, ptr @darktable, i32 0, i32 18), align 8, !tbaa !62
  %34 = call ptr @dt_database_get(ptr noundef %33)
  %35 = call ptr @sqlite3_errmsg(ptr noundef %34)
  %36 = call i32 (ptr, ptr, ...) @fprintf(ptr noundef %32, ptr noundef @.str.5, ptr noundef @.str.3, i32 noundef 405, ptr noundef @__FUNCTION__.dt_film_remove_empty, ptr noundef @.str.17, ptr noundef %35) #8
  br label %37

37:                                               ; preds = %31, %25
  call void @llvm.lifetime.end.p0(i64 4, ptr %5) #8
  br label %38

38:                                               ; preds = %37
  br label %39

39:                                               ; preds = %38
  br label %40

40:                                               ; preds = %108, %39
  %41 = load ptr, ptr %4, align 8, !tbaa !65
  %42 = call i32 @sqlite3_step(ptr noundef %41)
  %43 = icmp eq i32 %42, 100
  br i1 %43, label %44, label %109

44:                                               ; preds = %40
  call void @llvm.lifetime.start.p0(i64 8, ptr %6) #8
  store i32 1, ptr %3, align 4, !tbaa !24
  call void @llvm.lifetime.start.p0(i64 4, ptr %7) #8
  %45 = load ptr, ptr %4, align 8, !tbaa !65
  %46 = call i32 @sqlite3_column_int(ptr noundef %45, i32 noundef 0)
  store i32 %46, ptr %7, align 4, !tbaa !24
  call void @llvm.lifetime.start.p0(i64 8, ptr %8) #8
  %47 = load ptr, ptr %4, align 8, !tbaa !65
  %48 = call ptr @sqlite3_column_text(ptr noundef %47, i32 noundef 1)
  store ptr %48, ptr %8, align 8, !tbaa !68
  br label %49

49:                                               ; preds = %44
  br label %50

50:                                               ; preds = %49
  %51 = load i32, ptr getelementptr inbounds nuw (%struct.darktable_t, ptr @darktable, i32 0, i32 2), align 8, !tbaa !25
  %52 = and i32 256, %51
  %53 = icmp ne i32 %52, 0
  br i1 %53, label %54, label %60

54:                                               ; preds = %50
  %55 = load i32, ptr getelementptr inbounds nuw (%struct.darktable_t, ptr @darktable, i32 0, i32 2), align 8, !tbaa !25
  %56 = xor i32 %55, -1
  %57 = and i32 0, %56
  %58 = icmp ne i32 %57, 0
  br i1 %58, label %60, label %59

59:                                               ; preds = %54
  call void (ptr, ...) @dt_print_ext(ptr noundef @.str.2, ptr noundef @.str.3, i32 noundef 414, ptr noundef @__FUNCTION__.dt_film_remove_empty, ptr noundef @.str.18)
  br label %60

60:                                               ; preds = %59, %54, %50
  br label %61

61:                                               ; preds = %60
  br label %62

62:                                               ; preds = %61
  call void @llvm.lifetime.start.p0(i64 4, ptr %9) #8
  %63 = load ptr, ptr getelementptr inbounds nuw (%struct.darktable_t, ptr @darktable, i32 0, i32 18), align 8, !tbaa !62
  %64 = call ptr @dt_database_get(ptr noundef %63)
  %65 = call i32 @sqlite3_prepare_v2(ptr noundef %64, ptr noundef @.str.18, i32 noundef -1, ptr noundef %6, ptr noundef null)
  store i32 %65, ptr %9, align 4, !tbaa !24
  %66 = load i32, ptr %9, align 4, !tbaa !24
  %67 = icmp ne i32 %66, 0
  br i1 %67, label %68, label %74

68:                                               ; preds = %62
  %69 = load ptr, ptr @stderr, align 8, !tbaa !63
  %70 = load ptr, ptr getelementptr inbounds nuw (%struct.darktable_t, ptr @darktable, i32 0, i32 18), align 8, !tbaa !62
  %71 = call ptr @dt_database_get(ptr noundef %70)
  %72 = call ptr @sqlite3_errmsg(ptr noundef %71)
  %73 = call i32 (ptr, ptr, ...) @fprintf(ptr noundef %69, ptr noundef @.str.5, ptr noundef @.str.3, i32 noundef 414, ptr noundef @__FUNCTION__.dt_film_remove_empty, ptr noundef @.str.18, ptr noundef %72) #8
  br label %74

74:                                               ; preds = %68, %62
  call void @llvm.lifetime.end.p0(i64 4, ptr %9) #8
  br label %75

75:                                               ; preds = %74
  br label %76

76:                                               ; preds = %75
  call void @llvm.lifetime.start.p0(i64 4, ptr %10) #8
  %77 = load ptr, ptr %6, align 8, !tbaa !65
  %78 = load i32, ptr %7, align 4, !tbaa !24
  %79 = call i32 @sqlite3_bind_int(ptr noundef %77, i32 noundef 1, i32 noundef %78)
  store i32 %79, ptr %10, align 4, !tbaa !24
  %80 = load i32, ptr %10, align 4, !tbaa !24
  %81 = icmp ne i32 %80, 0
  br i1 %81, label %82, label %88

82:                                               ; preds = %76
  %83 = load ptr, ptr @stderr, align 8, !tbaa !63
  %84 = load ptr, ptr getelementptr inbounds nuw (%struct.darktable_t, ptr @darktable, i32 0, i32 18), align 8, !tbaa !62
  %85 = call ptr @dt_database_get(ptr noundef %84)
  %86 = call ptr @sqlite3_errmsg(ptr noundef %85)
  %87 = call i32 (ptr, ptr, ...) @fprintf(ptr noundef %83, ptr noundef @.str.6, ptr noundef @.str.3, i32 noundef 415, ptr noundef @__FUNCTION__.dt_film_remove_empty, ptr noundef %86) #8
  br label %88

88:                                               ; preds = %82, %76
  call void @llvm.lifetime.end.p0(i64 4, ptr %10) #8
  %89 = load ptr, ptr %6, align 8, !tbaa !65
  %90 = call i32 @sqlite3_step(ptr noundef %89)
  %91 = load ptr, ptr %6, align 8, !tbaa !65
  %92 = call i32 @sqlite3_finalize(ptr noundef %91)
  %93 = load ptr, ptr %8, align 8, !tbaa !68
  %94 = call i32 @dt_util_is_dir_empty(ptr noundef %93)
  %95 = icmp ne i32 %94, 0
  br i1 %95, label %96, label %108

96:                                               ; preds = %88
  %97 = load i32, ptr %2, align 4, !tbaa !24
  %98 = icmp ne i32 %97, 0
  br i1 %98, label %99, label %104

99:                                               ; preds = %96
  %100 = load ptr, ptr %1, align 8, !tbaa !80
  %101 = load ptr, ptr %8, align 8, !tbaa !68
  %102 = call noalias ptr @g_strdup(ptr noundef %101)
  %103 = call ptr @g_list_prepend(ptr noundef %100, ptr noundef %102)
  store ptr %103, ptr %1, align 8, !tbaa !80
  br label %107

104:                                              ; preds = %96
  %105 = load ptr, ptr %8, align 8, !tbaa !68
  %106 = call i32 @rmdir(ptr noundef %105) #8
  br label %107

107:                                              ; preds = %104, %99
  br label %108

108:                                              ; preds = %107, %88
  call void @llvm.lifetime.end.p0(i64 8, ptr %8) #8
  call void @llvm.lifetime.end.p0(i64 4, ptr %7) #8
  call void @llvm.lifetime.end.p0(i64 8, ptr %6) #8
  br label %40

109:                                              ; preds = %40
  %110 = load ptr, ptr %4, align 8, !tbaa !65
  %111 = call i32 @sqlite3_finalize(ptr noundef %110)
  %112 = load i32, ptr %3, align 4, !tbaa !24
  %113 = icmp ne i32 %112, 0
  br i1 %113, label %114, label %140

114:                                              ; preds = %109
  br label %115

115:                                              ; preds = %114
  %116 = load i32, ptr getelementptr inbounds nuw (%struct.darktable_t, ptr @darktable, i32 0, i32 53), align 8, !tbaa !78
  %117 = and i32 %116, 1
  %118 = icmp ne i32 %117, 0
  br i1 %118, label %119, label %136

119:                                              ; preds = %115
  %120 = load i32, ptr getelementptr inbounds ([47 x i32], ptr getelementptr inbounds nuw (%struct.darktable_t, ptr @darktable, i32 0, i32 54), i64 0, i64 17), align 4, !tbaa !24
  %121 = icmp ne i32 %120, 0
  br i1 %121, label %122, label %136

122:                                              ; preds = %119
  br label %123

123:                                              ; preds = %122
  %124 = load i32, ptr getelementptr inbounds nuw (%struct.darktable_t, ptr @darktable, i32 0, i32 2), align 8, !tbaa !25
  %125 = and i32 1048576, %124
  %126 = icmp ne i32 %125, 0
  br i1 %126, label %127, label %133

127:                                              ; preds = %123
  %128 = load i32, ptr getelementptr inbounds nuw (%struct.darktable_t, ptr @darktable, i32 0, i32 2), align 8, !tbaa !25
  %129 = xor i32 %128, -1
  %130 = and i32 0, %129
  %131 = icmp ne i32 %130, 0
  br i1 %131, label %133, label %132

132:                                              ; preds = %127
  call void (ptr, ...) @dt_print_ext(ptr noundef @.str.19, ptr noundef @.str.20, ptr noundef @.str.3, i32 noundef 428, ptr noundef @__FUNCTION__.dt_film_remove_empty)
  br label %133

133:                                              ; preds = %132, %127, %123
  br label %134

134:                                              ; preds = %133
  br label %135

135:                                              ; preds = %134
  br label %136

136:                                              ; preds = %135, %119, %115
  %137 = load ptr, ptr getelementptr inbounds nuw (%struct.darktable_t, ptr @darktable, i32 0, i32 13), align 8, !tbaa !79
  call void (ptr, i32, ...) @dt_control_signal_raise(ptr noundef %137, i32 noundef 17)
  br label %138

138:                                              ; preds = %136
  br label %139

139:                                              ; preds = %138
  br label %140

140:                                              ; preds = %139, %109
  %141 = load ptr, ptr %1, align 8, !tbaa !80
  %142 = icmp ne ptr %141, null
  br i1 %142, label %143, label %147

143:                                              ; preds = %140
  %144 = load ptr, ptr %1, align 8, !tbaa !80
  %145 = call ptr @g_list_reverse(ptr noundef %144)
  %146 = call i32 @g_idle_add(ptr noundef @ask_and_delete, ptr noundef %145)
  br label %147

147:                                              ; preds = %143, %140
  call void @llvm.lifetime.end.p0(i64 8, ptr %4) #8
  call void @llvm.lifetime.end.p0(i64 4, ptr %3) #8
  call void @llvm.lifetime.end.p0(i64 4, ptr %2) #8
  call void @llvm.lifetime.end.p0(i64 8, ptr %1) #8
  ret void
}