; Function Attrs: nounwind uwtable
define void @dt_film_remove_empty() local_unnamed_addr #0 {
  %1 = alloca ptr, align 8
  %2 = alloca ptr, align 8
  %3 = tail call i32 @dt_conf_get_bool(ptr noundef nonnull @.str.16) #11
  call void @llvm.lifetime.start.p0(i64 8, ptr nonnull %1) #11
  %4 = load i32, ptr getelementptr inbounds nuw (i8, ptr @darktable, i64 8), align 8, !tbaa !16
  %5 = and i32 %4, 256
  %.not = icmp eq i32 %5, 0
  br i1 %.not, label %7, label %6

6:                                                ; preds = %0
  tail call void (ptr, ...) @dt_print_ext(ptr noundef nonnull @.str.2, ptr noundef nonnull @.str.3, i32 noundef 405, ptr noundef nonnull @__FUNCTION__.dt_film_remove_empty, ptr noundef nonnull @.str.17) #11
  br label %7

7:                                                ; preds = %6, %0
  %8 = load ptr, ptr getelementptr inbounds nuw (i8, ptr @darktable, i64 136), align 8, !tbaa !53
  %9 = tail call ptr @dt_database_get(ptr noundef %8) #11
  %10 = call i32 @sqlite3_prepare_v2(ptr noundef %9, ptr noundef nonnull @.str.17, i32 noundef -1, ptr noundef nonnull %1, ptr noundef null) #11
  %.not13 = icmp eq i32 %10, 0
  br i1 %.not13, label %17, label %11

11:                                               ; preds = %7
  %12 = load ptr, ptr @stderr, align 8, !tbaa !54
  %13 = load ptr, ptr getelementptr inbounds nuw (i8, ptr @darktable, i64 136), align 8, !tbaa !53
  %14 = call ptr @dt_database_get(ptr noundef %13) #11
  %15 = call ptr @sqlite3_errmsg(ptr noundef %14) #11
  %16 = call i32 (ptr, ptr, ...) @fprintf(ptr noundef %12, ptr noundef nonnull @.str.5, ptr noundef nonnull @.str.3, i32 noundef 405, ptr noundef nonnull @__FUNCTION__.dt_film_remove_empty, ptr noundef nonnull @.str.17, ptr noundef %15) #12
  br label %17

17:                                               ; preds = %11, %7
  %18 = load ptr, ptr %1, align 8, !tbaa !56
  %19 = call i32 @sqlite3_step(ptr noundef %18) #11
  %.not24 = icmp eq i32 %19, 100
  br i1 %.not24, label %.lr.ph, label %.thread

.thread:                                          ; preds = %17
  %20 = load ptr, ptr %1, align 8, !tbaa !56
  %21 = call i32 @sqlite3_finalize(ptr noundef %20) #11
  br label %81

.lr.ph:                                           ; preds = %17
  %.not21 = icmp eq i32 %3, 0
  br label %22

22:                                               ; preds = %.lr.ph, %61
  %.022 = phi ptr [ null, %.lr.ph ], [ %.1, %61 ]
  call void @llvm.lifetime.start.p0(i64 8, ptr nonnull %2) #11
  %23 = load ptr, ptr %1, align 8, !tbaa !56
  %24 = call i32 @sqlite3_column_int(ptr noundef %23, i32 noundef 0) #11
  %25 = load ptr, ptr %1, align 8, !tbaa !56
  %26 = call ptr @sqlite3_column_text(ptr noundef %25, i32 noundef 1) #11
  %27 = load i32, ptr getelementptr inbounds nuw (i8, ptr @darktable, i64 8), align 8, !tbaa !16
  %28 = and i32 %27, 256
  %.not17 = icmp eq i32 %28, 0
  br i1 %.not17, label %30, label %29

29:                                               ; preds = %22
  call void (ptr, ...) @dt_print_ext(ptr noundef nonnull @.str.2, ptr noundef nonnull @.str.3, i32 noundef 414, ptr noundef nonnull @__FUNCTION__.dt_film_remove_empty, ptr noundef nonnull @.str.18) #11
  br label %30

30:                                               ; preds = %29, %22
  %31 = load ptr, ptr getelementptr inbounds nuw (i8, ptr @darktable, i64 136), align 8, !tbaa !53
  %32 = call ptr @dt_database_get(ptr noundef %31) #11
  %33 = call i32 @sqlite3_prepare_v2(ptr noundef %32, ptr noundef nonnull @.str.18, i32 noundef -1, ptr noundef nonnull %2, ptr noundef null) #11
  %.not18 = icmp eq i32 %33, 0
  br i1 %.not18, label %40, label %34

34:                                               ; preds = %30
  %35 = load ptr, ptr @stderr, align 8, !tbaa !54
  %36 = load ptr, ptr getelementptr inbounds nuw (i8, ptr @darktable, i64 136), align 8, !tbaa !53
  %37 = call ptr @dt_database_get(ptr noundef %36) #11
  %38 = call ptr @sqlite3_errmsg(ptr noundef %37) #11
  %39 = call i32 (ptr, ptr, ...) @fprintf(ptr noundef %35, ptr noundef nonnull @.str.5, ptr noundef nonnull @.str.3, i32 noundef 414, ptr noundef nonnull @__FUNCTION__.dt_film_remove_empty, ptr noundef nonnull @.str.18, ptr noundef %38) #12
  br label %40

40:                                               ; preds = %34, %30
  %41 = load ptr, ptr %2, align 8, !tbaa !56
  %42 = call i32 @sqlite3_bind_int(ptr noundef %41, i32 noundef 1, i32 noundef %24) #11
  %.not19 = icmp eq i32 %42, 0
  br i1 %.not19, label %49, label %43

43:                                               ; preds = %40
  %44 = load ptr, ptr @stderr, align 8, !tbaa !54
  %45 = load ptr, ptr getelementptr inbounds nuw (i8, ptr @darktable, i64 136), align 8, !tbaa !53
  %46 = call ptr @dt_database_get(ptr noundef %45) #11
  %47 = call ptr @sqlite3_errmsg(ptr noundef %46) #11
  %48 = call i32 (ptr, ptr, ...) @fprintf(ptr noundef %44, ptr noundef nonnull @.str.6, ptr noundef nonnull @.str.3, i32 noundef 415, ptr noundef nonnull @__FUNCTION__.dt_film_remove_empty, ptr noundef %47) #12
  br label %49

49:                                               ; preds = %43, %40
  %50 = load ptr, ptr %2, align 8, !tbaa !56
  %51 = call i32 @sqlite3_step(ptr noundef %50) #11
  %52 = load ptr, ptr %2, align 8, !tbaa !56
  %53 = call i32 @sqlite3_finalize(ptr noundef %52) #11
  %54 = call i32 @dt_util_is_dir_empty(ptr noundef %26) #11
  %.not20 = icmp eq i32 %54, 0
  br i1 %.not20, label %61, label %55

55:                                               ; preds = %49
  br i1 %.not21, label %59, label %56

56:                                               ; preds = %55
  %57 = call noalias ptr @g_strdup(ptr noundef %26) #11
  %58 = call ptr @g_list_prepend(ptr noundef %.022, ptr noundef %57) #11
  br label %61

59:                                               ; preds = %55
  %60 = call i32 @rmdir(ptr noundef %26) #11
  br label %61

61:                                               ; preds = %56, %59, %49
  %.1 = phi ptr [ %58, %56 ], [ %.022, %59 ], [ %.022, %49 ]
  call void @llvm.lifetime.end.p0(i64 8, ptr nonnull %2) #11
  %62 = load ptr, ptr %1, align 8, !tbaa !56
  %63 = call i32 @sqlite3_step(ptr noundef %62) #11
  %64 = icmp eq i32 %63, 100
  br i1 %64, label %22, label %._crit_edge

._crit_edge:                                      ; preds = %61
  %65 = load ptr, ptr %1, align 8, !tbaa !56
  %66 = call i32 @sqlite3_finalize(ptr noundef %65) #11
  %67 = load i32, ptr getelementptr inbounds nuw (i8, ptr @darktable, i64 3128), align 8, !tbaa !68
  %68 = and i32 %67, 1
  %69 = icmp ne i32 %68, 0
  %70 = load i32, ptr getelementptr inbounds nuw (i8, ptr @darktable, i64 3200), align 8
  %71 = icmp ne i32 %70, 0
  %or.cond = select i1 %69, i1 %71, i1 false
  br i1 %or.cond, label %72, label %76

72:                                               ; preds = %._crit_edge
  %73 = load i32, ptr getelementptr inbounds nuw (i8, ptr @darktable, i64 8), align 8, !tbaa !16
  %74 = and i32 %73, 1048576
  %.not15 = icmp eq i32 %74, 0
  br i1 %.not15, label %76, label %75

75:                                               ; preds = %72
  call void (ptr, ...) @dt_print_ext(ptr noundef nonnull @.str.19, ptr noundef nonnull @.str.20, ptr noundef nonnull @.str.3, i32 noundef 428, ptr noundef nonnull @__FUNCTION__.dt_film_remove_empty) #11
  br label %76

76:                                               ; preds = %72, %75, %._crit_edge
  %77 = load ptr, ptr getelementptr inbounds nuw (i8, ptr @darktable, i64 96), align 8, !tbaa !69
  call void (ptr, i32, ...) @dt_control_signal_raise(ptr noundef %77, i32 noundef 17) #11
  %.not16 = icmp eq ptr %.1, null
  br i1 %.not16, label %81, label %78

78:                                               ; preds = %76
  %79 = call ptr @g_list_reverse(ptr noundef nonnull %.1) #11
  %80 = call i32 @g_idle_add(ptr noundef nonnull @ask_and_delete, ptr noundef %79) #11
  br label %81

81:                                               ; preds = %.thread, %78, %76
  call void @llvm.lifetime.end.p0(i64 8, ptr nonnull %1) #11
  ret void
}